target datalayout = "e-m:e-p270:32:32-p271:32:32-p272:64:64-i64:64-i128:128-f80:128-n8:16:32:64-S128"
target triple = "x86_64-pc-linux-gnu"

; Function Attrs: nounwind uwtable
define internal i32 @add_digest_smcap(ptr noundef %0, i32 noundef %1, i32 noundef %2) #0 {
  %4 = alloca i32, align 4
  %5 = alloca ptr, align 8
  %6 = alloca i32, align 4
  %7 = alloca i32, align 4
  store ptr %0, ptr %5, align 8, !tbaa !28
  store i32 %1, ptr %6, align 4, !tbaa !14
  store i32 %2, ptr %7, align 4, !tbaa !14
  %8 = load i32, ptr %6, align 4, !tbaa !14
  %9 = call ptr @OBJ_nid2sn(i32 noundef %8)
  %10 = call ptr @EVP_get_digestbyname(ptr noundef %9)
  %11 = icmp ne ptr %10, null
  br i1 %11, label %12, label %17

12:                                               ; preds = %3
  %13 = load ptr, ptr %5, align 8, !tbaa !28
  %14 = load i32, ptr %6, align 4, !tbaa !14
  %15 = load i32, ptr %7, align 4, !tbaa !14
  %16 = call i32 @PKCS7_simple_smimecap(ptr noundef %13, i32 noundef %14, i32 noundef %15)
  store i32 %16, ptr %4, align 4
  br label %18

17:                                               ; preds = %3
  store i32 1, ptr %4, align 4
  br label %18

18:                                               ; preds = %17, %12
  %19 = load i32, ptr %4, align 4
  ret i32 %19
}