; Function Attrs: nounwind uwtable
define internal fastcc i32 @add_digest_smcap(ptr noundef nonnull %0, i32 noundef range(i32 809, 984) %1) unnamed_addr #0 {
  %3 = tail call ptr @OBJ_nid2sn(i32 noundef %1) #3
  %4 = tail call ptr @EVP_get_digestbyname(ptr noundef %3) #3
  %.not = icmp eq ptr %4, null
  br i1 %.not, label %7, label %5

5:                                                ; preds = %2
  %6 = tail call i32 @PKCS7_simple_smimecap(ptr noundef nonnull %0, i32 noundef %1, i32 noundef -1) #3
  br label %7

7:                                                ; preds = %2, %5
  %.0 = phi i32 [ %6, %5 ], [ 1, %2 ]
  ret i32 %.0
}